; ModuleID = 'source-C-CXX/30/225.c'
source_filename = "source-C-CXX/30/225.c"
target datalayout = "e-m:e-p270:32:32-p271:32:32-p272:64:64-i64:64-f80:128-n8:16:32:64-S128"
target triple = "x86_64-pc-linux-gnu"

%struct.student = type { [20 x i8], [20 x i8], i8, i32, [20 x i8], [20 x i8], %struct.student*, %struct.student* }

@.str = private unnamed_addr constant [3 x i8] c"%s\00", align 1
@.str.1 = private unnamed_addr constant [4 x i8] c"end\00", align 1
@.str.2 = private unnamed_addr constant [15 x i8] c"%s %c %d %s %s\00", align 1
@.str.3 = private unnamed_addr constant [19 x i8] c"%s %s %c %d %s %s\0A\00", align 1

; Function Attrs: nounwind sspstrong uwtable
define dso_local %struct.student* @create() local_unnamed_addr #0 {
  %1 = tail call noalias align 16 dereferenceable_or_null(100) i8* @malloc(i64 100) #7
  %2 = bitcast i8* %1 to %struct.student*
  %3 = getelementptr inbounds %struct.student, %struct.student* %2, i64 0, i32 0, i64 0
  %4 = tail call i32 (i8*, ...) @__isoc99_scanf(i8* getelementptr inbounds ([3 x i8], [3 x i8]* @.str, i64 0, i64 0), i8* %3)
  %5 = tail call i32 @strcmp(i8* noundef nonnull dereferenceable(1) %3, i8* noundef nonnull dereferenceable(4) getelementptr inbounds ([4 x i8], [4 x i8]* @.str.1, i64 0, i64 0)) #8
  %6 = icmp eq i32 %5, 0
  br i1 %6, label %7, label %8

7:                                                ; preds = %0
  tail call void @free(i8* %1) #7
  br label %52

8:                                                ; preds = %0
  %9 = getelementptr inbounds %struct.student, %struct.student* %2, i64 0, i32 1, i64 0
  %10 = getelementptr inbounds %struct.student, %struct.student* %2, i64 0, i32 2
  %11 = getelementptr inbounds %struct.student, %struct.student* %2, i64 0, i32 3
  %12 = getelementptr inbounds %struct.student, %struct.student* %2, i64 0, i32 4, i64 0
  %13 = getelementptr inbounds %struct.student, %struct.student* %2, i64 0, i32 5, i64 0
  %14 = tail call i32 (i8*, ...) @__isoc99_scanf(i8* getelementptr inbounds ([15 x i8], [15 x i8]* @.str.2, i64 0, i64 0), i8* nonnull %9, i8* nonnull %10, i32* nonnull %11, i8* nonnull %12, i8* nonnull %13)
  %15 = getelementptr inbounds %struct.student, %struct.student* %2, i64 0, i32 6
  %16 = tail call noalias align 16 dereferenceable_or_null(100) i8* @malloc(i64 100) #7
  %17 = bitcast i8* %16 to %struct.student*
  %18 = getelementptr inbounds %struct.student, %struct.student* %17, i64 0, i32 7
  %19 = bitcast %struct.student** %18 to i8**
  %20 = bitcast %struct.student** %15 to i8*
  call void @llvm.memset.p0i8.i64(i8* noundef nonnull align 8 dereferenceable(16) %20, i8 0, i64 16, i1 false)
  store i8* %1, i8** %19, align 16, !tbaa !5
  %21 = getelementptr inbounds %struct.student, %struct.student* %17, i64 0, i32 6
  store %struct.student* null, %struct.student** %21, align 8, !tbaa !11
  %22 = getelementptr inbounds %struct.student, %struct.student* %17, i64 0, i32 0, i64 0
  %23 = tail call i32 (i8*, ...) @__isoc99_scanf(i8* getelementptr inbounds ([3 x i8], [3 x i8]* @.str, i64 0, i64 0), i8* %22)
  %24 = tail call i32 @strcmp(i8* noundef nonnull dereferenceable(1) %22, i8* noundef nonnull dereferenceable(4) getelementptr inbounds ([4 x i8], [4 x i8]* @.str.1, i64 0, i64 0)) #8
  %25 = icmp eq i32 %24, 0
  br i1 %25, label %26, label %30

26:                                               ; preds = %30, %8
  %27 = phi %struct.student* [ %2, %8 ], [ %33, %30 ]
  %28 = phi i8* [ %16, %8 ], [ %44, %30 ]
  %29 = getelementptr inbounds %struct.student, %struct.student* %27, i64 0, i32 6
  store %struct.student* null, %struct.student** %29, align 8, !tbaa !11
  tail call void @free(i8* nonnull %28) #7
  br label %52

30:                                               ; preds = %8, %30
  %31 = phi %struct.student** [ %47, %30 ], [ %21, %8 ]
  %32 = phi %struct.student** [ %46, %30 ], [ %18, %8 ]
  %33 = phi %struct.student* [ %45, %30 ], [ %17, %8 ]
  %34 = phi i8* [ %44, %30 ], [ %16, %8 ]
  %35 = phi %struct.student* [ %33, %30 ], [ %2, %8 ]
  %36 = getelementptr inbounds %struct.student, %struct.student* %33, i64 0, i32 1, i64 0
  %37 = getelementptr inbounds %struct.student, %struct.student* %33, i64 0, i32 2
  %38 = getelementptr inbounds %struct.student, %struct.student* %33, i64 0, i32 3
  %39 = getelementptr inbounds %struct.student, %struct.student* %33, i64 0, i32 4, i64 0
  %40 = getelementptr inbounds %struct.student, %struct.student* %33, i64 0, i32 5, i64 0
  %41 = tail call i32 (i8*, ...) @__isoc99_scanf(i8* getelementptr inbounds ([15 x i8], [15 x i8]* @.str.2, i64 0, i64 0), i8* nonnull %36, i8* nonnull %37, i32* nonnull %38, i8* nonnull %39, i8* nonnull %40)
  %42 = getelementptr inbounds %struct.student, %struct.student* %35, i64 0, i32 6
  %43 = bitcast %struct.student** %42 to i8**
  store i8* %34, i8** %43, align 8, !tbaa !11
  store %struct.student* %35, %struct.student** %32, align 16, !tbaa !5
  store %struct.student* null, %struct.student** %31, align 8, !tbaa !11
  %44 = tail call noalias align 16 dereferenceable_or_null(100) i8* @malloc(i64 100) #7
  %45 = bitcast i8* %44 to %struct.student*
  %46 = getelementptr inbounds %struct.student, %struct.student* %45, i64 0, i32 7
  store %struct.student* %33, %struct.student** %46, align 16, !tbaa !5
  %47 = getelementptr inbounds %struct.student, %struct.student* %45, i64 0, i32 6
  store %struct.student* null, %struct.student** %47, align 8, !tbaa !11
  %48 = getelementptr inbounds %struct.student, %struct.student* %45, i64 0, i32 0, i64 0
  %49 = tail call i32 (i8*, ...) @__isoc99_scanf(i8* getelementptr inbounds ([3 x i8], [3 x i8]* @.str, i64 0, i64 0), i8* %48)
  %50 = tail call i32 @strcmp(i8* noundef nonnull dereferenceable(1) %48, i8* noundef nonnull dereferenceable(4) getelementptr inbounds ([4 x i8], [4 x i8]* @.str.1, i64 0, i64 0)) #8
  %51 = icmp eq i32 %50, 0
  br i1 %51, label %26, label %30

52:                                               ; preds = %26, %7
  %53 = phi %struct.student* [ null, %7 ], [ %27, %26 ]
  ret %struct.student* %53
}

; Function Attrs: inaccessiblememonly mustprogress nofree nounwind willreturn
declare noalias noundef align 16 i8* @malloc(i64 noundef) local_unnamed_addr #1

; Function Attrs: nofree nounwind
declare noundef i32 @__isoc99_scanf(i8* nocapture noundef readonly, ...) local_unnamed_addr #2

; Function Attrs: argmemonly mustprogress nofree nounwind readonly willreturn
declare i32 @strcmp(i8* nocapture, i8* nocapture) local_unnamed_addr #3

; Function Attrs: inaccessiblemem_or_argmemonly mustprogress nounwind willreturn
declare void @free(i8* nocapture noundef) local_unnamed_addr #4

; Function Attrs: nofree nounwind sspstrong uwtable
define dso_local void @print(%struct.student* %0) local_unnamed_addr #5 {
  %2 = icmp eq %struct.student* %0, null
  br i1 %2, label %18, label %3

3:                                                ; preds = %1, %3
  %4 = phi %struct.student* [ %16, %3 ], [ %0, %1 ]
  %5 = getelementptr inbounds %struct.student, %struct.student* %4, i64 0, i32 0, i64 0
  %6 = getelementptr inbounds %struct.student, %struct.student* %4, i64 0, i32 1, i64 0
  %7 = getelementptr inbounds %struct.student, %struct.student* %4, i64 0, i32 2
  %8 = load i8, i8* %7, align 8, !tbaa !12
  %9 = sext i8 %8 to i32
  %10 = getelementptr inbounds %struct.student, %struct.student* %4, i64 0, i32 3
  %11 = load i32, i32* %10, align 4, !tbaa !13
  %12 = getelementptr inbounds %struct.student, %struct.student* %4, i64 0, i32 4, i64 0
  %13 = getelementptr inbounds %struct.student, %struct.student* %4, i64 0, i32 5, i64 0
  %14 = tail call i32 (i8*, ...) @printf(i8* nonnull dereferenceable(1) getelementptr inbounds ([19 x i8], [19 x i8]* @.str.3, i64 0, i64 0), i8* nonnull %5, i8* nonnull %6, i32 %9, i32 %11, i8* nonnull %12, i8* nonnull %13)
  %15 = getelementptr inbounds %struct.student, %struct.student* %4, i64 0, i32 7
  %16 = load %struct.student*, %struct.student** %15, align 8, !tbaa !5
  %17 = icmp eq %struct.student* %16, null
  br i1 %17, label %18, label %3, !llvm.loop !14

18:                                               ; preds = %3, %1
  ret void
}

; Function Attrs: nofree nounwind
declare noundef i32 @printf(i8* nocapture noundef readonly, ...) local_unnamed_addr #2

; Function Attrs: nounwind sspstrong uwtable
define dso_local i32 @main() local_unnamed_addr #0 {
  %1 = tail call %struct.student* @create()
  %2 = icmp eq %struct.student* %1, null
  br i1 %2, label %18, label %3

3:                                                ; preds = %0, %3
  %4 = phi %struct.student* [ %16, %3 ], [ %1, %0 ]
  %5 = getelementptr inbounds %struct.student, %struct.student* %4, i64 0, i32 0, i64 0
  %6 = getelementptr inbounds %struct.student, %struct.student* %4, i64 0, i32 1, i64 0
  %7 = getelementptr inbounds %struct.student, %struct.student* %4, i64 0, i32 2
  %8 = load i8, i8* %7, align 8, !tbaa !12
  %9 = sext i8 %8 to i32
  %10 = getelementptr inbounds %struct.student, %struct.student* %4, i64 0, i32 3
  %11 = load i32, i32* %10, align 4, !tbaa !13
  %12 = getelementptr inbounds %struct.student, %struct.student* %4, i64 0, i32 4, i64 0
  %13 = getelementptr inbounds %struct.student, %struct.student* %4, i64 0, i32 5, i64 0
  %14 = tail call i32 (i8*, ...) @printf(i8* nonnull dereferenceable(1) getelementptr inbounds ([19 x i8], [19 x i8]* @.str.3, i64 0, i64 0), i8* nonnull %5, i8* nonnull %6, i32 %9, i32 %11, i8* nonnull %12, i8* nonnull %13) #7
  %15 = getelementptr inbounds %struct.student, %struct.student* %4, i64 0, i32 7
  %16 = load %struct.student*, %struct.student** %15, align 8, !tbaa !5
  %17 = icmp eq %struct.student* %16, null
  br i1 %17, label %18, label %3, !llvm.loop !14

18:                                               ; preds = %3, %0
  ret i32 0
}

; Function Attrs: argmemonly nofree nounwind willreturn writeonly
declare void @llvm.memset.p0i8.i64(i8* nocapture writeonly, i8, i64, i1 immarg) #6


!llvm.module.flags = !{!0, !1, !2, !3}
!llvm.ident = !{!4}

!0 = !{i32 1, !"wchar_size", i32 4}
!1 = !{i32 7, !"PIC Level", i32 2}
!2 = !{i32 7, !"PIE Level", i32 2}
!3 = !{i32 7, !"uwtable", i32 1}
!4 = !{!"clang version 13.0.0"}
!5 = !{!6, !10, i64 96}
!6 = !{!"student", !7, i64 0, !7, i64 20, !7, i64 40, !9, i64 44, !7, i64 48, !7, i64 68, !10, i64 88, !10, i64 96}
!7 = !{!"omnipotent char", !8, i64 0}
!8 = !{!"Simple C/C++ TBAA"}
!9 = !{!"int", !7, i64 0}
!10 = !{!"any pointer", !7, i64 0}
!11 = !{!6, !10, i64 88}
!12 = !{!6, !7, i64 40}
!13 = !{!6, !9, i64 44}
!14 = distinct !{!14, !15}
!15 = !{!"llvm.loop.mustprogress"}
